target datalayout = "e-m:e-p270:32:32-p271:32:32-p272:64:64-i64:64-i128:128-f80:128-n8:16:32:64-S128"
target triple = "x86_64-pc-linux-gnu"

%"class.cv::Range" = type { i32, i32 }
%class.anon = type { ptr, ptr, ptr, ptr, ptr }

; Function Attrs: inlinehint mustprogress nounwind uwtable
define internal void @"_ZZN2cv3dnn12initFastConvERKNS_11_InputArrayEPfiiiRKSt6vectorImSaImEES9_S9_S9_S9_ibbENK3$_0clERKNS_5RangeE"(ptr noundef nonnull align 8 dereferenceable(40) %0, ptr noundef nonnull align 4 dereferenceable(8) %1) #5 align 2 {
  %3 = alloca ptr, align 8
  %4 = alloca ptr, align 8
  %5 = alloca i32, align 4
  store ptr %0, ptr %3, align 8, !tbaa !109
  store ptr %1, ptr %4, align 8, !tbaa !100
  %6 = load ptr, ptr %3, align 8
  call void @llvm.lifetime.start.p0(i64 4, ptr %5) #3
  %7 = load ptr, ptr %4, align 8, !tbaa !100
  %8 = getelementptr inbounds nuw %"class.cv::Range", ptr %7, i32 0, i32 0
  %9 = load i32, ptr %8, align 4, !tbaa !106
  store i32 %9, ptr %5, align 4, !tbaa !10
  br label %10

10:                                               ; preds = %43, %2
  %11 = load i32, ptr %5, align 4, !tbaa !10
  %12 = load ptr, ptr %4, align 8, !tbaa !100
  %13 = getelementptr inbounds nuw %"class.cv::Range", ptr %12, i32 0, i32 1
  %14 = load i32, ptr %13, align 4, !tbaa !108
  %15 = icmp slt i32 %11, %14
  br i1 %15, label %17, label %16

16:                                               ; preds = %10
  call void @llvm.lifetime.end.p0(i64 4, ptr %5) #3
  br label %46

17:                                               ; preds = %10
  %18 = getelementptr inbounds nuw %class.anon, ptr %6, i32 0, i32 0
  %19 = load ptr, ptr %18, align 8, !tbaa !304
  %20 = load ptr, ptr %19, align 8, !tbaa !8
  %21 = load i32, ptr %5, align 4, !tbaa !10
  %22 = getelementptr inbounds nuw %class.anon, ptr %6, i32 0, i32 1
  %23 = load ptr, ptr %22, align 8, !tbaa !306
  %24 = load i32, ptr %23, align 4, !tbaa !10
  %25 = mul nsw i32 %21, %24
  %26 = sext i32 %25 to i64
  %27 = getelementptr inbounds float, ptr %20, i64 %26
  %28 = getelementptr inbounds nuw %class.anon, ptr %6, i32 0, i32 2
  %29 = load ptr, ptr %28, align 8, !tbaa !307
  %30 = load ptr, ptr %29, align 8, !tbaa !8
  %31 = load i32, ptr %5, align 4, !tbaa !10
  %32 = sext i32 %31 to i64
  %33 = getelementptr inbounds nuw %class.anon, ptr %6, i32 0, i32 3
  %34 = load ptr, ptr %33, align 8, !tbaa !308
  %35 = load i64, ptr %34, align 8, !tbaa !28
  %36 = mul i64 %32, %35
  %37 = getelementptr inbounds nuw float, ptr %30, i64 %36
  %38 = getelementptr inbounds nuw %class.anon, ptr %6, i32 0, i32 4
  %39 = load ptr, ptr %38, align 8, !tbaa !309
  %40 = load i32, ptr %39, align 4, !tbaa !10
  %41 = sext i32 %40 to i64
  %42 = mul i64 %41, 4
  call void @llvm.memcpy.p0.p0.i64(ptr align 4 %27, ptr align 4 %37, i64 %42, i1 false)
  br label %43

43:                                               ; preds = %17
  %44 = load i32, ptr %5, align 4, !tbaa !10
  %45 = add nsw i32 %44, 1
  store i32 %45, ptr %5, align 4, !tbaa !10
  br label %10, !llvm.loop !310

46:                                               ; preds = %16
  ret void
}

; Function Attrs: mustprogress nounwind uwtable
define linkonce_odr hidden noundef ptr @_ZNKSt9_Any_data9_M_accessEv(ptr noundef nonnull align 8 dereferenceable(16) %0) #6 comdat align 2 {
  %2 = alloca ptr, align 8
  store ptr %0, ptr %2, align 8, !tbaa !299
  %3 = load ptr, ptr %2, align 8
  %4 = getelementptr inbounds [16 x i8], ptr %3, i64 0, i64 0
  ret ptr %4
}

; Function Attrs: mustprogress uwtable
define internal void @"_ZSt13__invoke_implIvRZN2cv3dnn12initFastConvERKNS0_11_InputArrayEPfiiiRKSt6vectorImSaImEESA_SA_SA_SA_ibbE3$_0JRKNS0_5RangeEEET_St14__invoke_otherOT0_DpOT1_"(ptr noundef nonnull align 8 dereferenceable(40) %0, ptr noundef nonnull align 4 dereferenceable(8) %1) #4 {
  %3 = alloca ptr, align 8
  %4 = alloca ptr, align 8
  store ptr %0, ptr %3, align 8, !tbaa !109
  store ptr %1, ptr %4, align 8, !tbaa !100
  %5 = load ptr, ptr %3, align 8, !tbaa !109
  %6 = load ptr, ptr %4, align 8, !tbaa !100
  call void @"_ZZN2cv3dnn12initFastConvERKNS_11_InputArrayEPfiiiRKSt6vectorImSaImEES9_S9_S9_S9_ibbENK3$_0clERKNS_5RangeE"(ptr noundef nonnull align 8 dereferenceable(40) %5, ptr noundef nonnull align 4 dereferenceable(8) %6)
  ret void
}

; Function Attrs: mustprogress nounwind uwtable
define internal noundef nonnull align 8 dereferenceable(8) ptr @"_ZNKSt9_Any_data9_M_accessIPZN2cv3dnn12initFastConvERKNS1_11_InputArrayEPfiiiRKSt6vectorImSaImEESB_SB_SB_SB_ibbE3$_0EERKT_v"(ptr noundef nonnull align 8 dereferenceable(16) %0) #6 align 2 {
  %2 = alloca ptr, align 8
  store ptr %0, ptr %2, align 8, !tbaa !299
  %3 = load ptr, ptr %2, align 8
  %4 = call noundef ptr @_ZNKSt9_Any_data9_M_accessEv(ptr noundef nonnull align 8 dereferenceable(16) %3) #3
  ret ptr %4
}

; Function Attrs: mustprogress uwtable
define internal void @"_ZSt10__invoke_rIvRZN2cv3dnn12initFastConvERKNS0_11_InputArrayEPfiiiRKSt6vectorImSaImEESA_SA_SA_SA_ibbE3$_0JRKNS0_5RangeEEENSt9enable_ifIXsr6__and_ISt7is_voidIT_ESt14__is_invocableIT0_JDpT1_EEEE5valueESI_E4typeEOSL_DpOSM_"(ptr noundef nonnull align 8 dereferenceable(40) %0, ptr noundef nonnull align 4 dereferenceable(8) %1) #4 {
  %3 = alloca ptr, align 8
  %4 = alloca ptr, align 8
  store ptr %0, ptr %3, align 8, !tbaa !109
  store ptr %1, ptr %4, align 8, !tbaa !100
  %5 = load ptr, ptr %3, align 8, !tbaa !109
  %6 = load ptr, ptr %4, align 8, !tbaa !100
  call void @"_ZSt13__invoke_implIvRZN2cv3dnn12initFastConvERKNS0_11_InputArrayEPfiiiRKSt6vectorImSaImEESA_SA_SA_SA_ibbE3$_0JRKNS0_5RangeEEET_St14__invoke_otherOT0_DpOT1_"(ptr noundef nonnull align 8 dereferenceable(40) %5, ptr noundef nonnull align 4 dereferenceable(8) %6)
  ret void
}

; Function Attrs: mustprogress nounwind uwtable
define internal noundef ptr @"_ZNSt14_Function_base13_Base_managerIZN2cv3dnn12initFastConvERKNS1_11_InputArrayEPfiiiRKSt6vectorImSaImEESB_SB_SB_SB_ibbE3$_0E14_M_get_pointerERKSt9_Any_data"(ptr noundef nonnull align 8 dereferenceable(16) %0) #6 align 2 {
  %2 = alloca ptr, align 8
  store ptr %0, ptr %2, align 8, !tbaa !299
  %3 = load ptr, ptr %2, align 8, !tbaa !299
  %4 = call noundef nonnull align 8 dereferenceable(8) ptr @"_ZNKSt9_Any_data9_M_accessIPZN2cv3dnn12initFastConvERKNS1_11_InputArrayEPfiiiRKSt6vectorImSaImEESB_SB_SB_SB_ibbE3$_0EERKT_v"(ptr noundef nonnull align 8 dereferenceable(16) %3) #3
  %5 = load ptr, ptr %4, align 8, !tbaa !109
  ret ptr %5
}

; Function Attrs: mustprogress uwtable
define internal void @"_ZNSt17_Function_handlerIFvRKN2cv5RangeEEZNS0_3dnn12initFastConvERKNS0_11_InputArrayEPfiiiRKSt6vectorImSaImEESE_SE_SE_SE_ibbE3$_0E9_M_invokeERKSt9_Any_dataS3_"(ptr noundef nonnull align 8 dereferenceable(16) %0, ptr noundef nonnull align 4 dereferenceable(8) %1) #4 align 2 {
  %3 = alloca ptr, align 8
  %4 = alloca ptr, align 8
  store ptr %0, ptr %3, align 8, !tbaa !299
  store ptr %1, ptr %4, align 8, !tbaa !100
  %5 = load ptr, ptr %3, align 8, !tbaa !299
  %6 = call noundef ptr @"_ZNSt14_Function_base13_Base_managerIZN2cv3dnn12initFastConvERKNS1_11_InputArrayEPfiiiRKSt6vectorImSaImEESB_SB_SB_SB_ibbE3$_0E14_M_get_pointerERKSt9_Any_data"(ptr noundef nonnull align 8 dereferenceable(16) %5) #3
  %7 = load ptr, ptr %4, align 8, !tbaa !100
  call void @"_ZSt10__invoke_rIvRZN2cv3dnn12initFastConvERKNS0_11_InputArrayEPfiiiRKSt6vectorImSaImEESA_SA_SA_SA_ibbE3$_0JRKNS0_5RangeEEENSt9enable_ifIXsr6__and_ISt7is_voidIT_ESt14__is_invocableIT0_JDpT1_EEEE5valueESI_E4typeEOSL_DpOSM_"(ptr noundef nonnull align 8 dereferenceable(40) %6, ptr noundef nonnull align 4 dereferenceable(8) %7)
  ret void
}