; Function Attrs: mustprogress nofree norecurse nosync nounwind memory(readwrite, inaccessiblemem: none) uwtable
define internal void @"_ZNSt17_Function_handlerIFvRKN2cv5RangeEEZNS0_3dnn12initFastConvERKNS0_11_InputArrayEPfiiiRKSt6vectorImSaImEESE_SE_SE_SE_ibbE3$_0E9_M_invokeERKSt9_Any_dataS3_"(ptr noundef nonnull readonly align 8 captures(none) dereferenceable(16) %0, ptr noundef nonnull readonly align 4 captures(none) dereferenceable(8) %1) #19 align 2 {
  %.val = load ptr, ptr %0, align 8, !tbaa !102
  %3 = load i32, ptr %1, align 4, !tbaa !95
  %4 = getelementptr inbounds nuw i8, ptr %1, i64 4
  %5 = load i32, ptr %4, align 4, !tbaa !97
  %6 = icmp slt i32 %3, %5
  br i1 %6, label %.lr.ph.i.i.i, label %"_ZSt10__invoke_rIvRZN2cv3dnn12initFastConvERKNS0_11_InputArrayEPfiiiRKSt6vectorImSaImEESA_SA_SA_SA_ibbE3$_0JRKNS0_5RangeEEENSt9enable_ifIXsr6__and_ISt7is_voidIT_ESt14__is_invocableIT0_JDpT1_EEEE5valueESI_E4typeEOSL_DpOSM_.exit"

.lr.ph.i.i.i:                                     ; preds = %2
  %7 = getelementptr inbounds nuw i8, ptr %.val, i64 8
  %8 = getelementptr inbounds nuw i8, ptr %.val, i64 16
  %9 = getelementptr inbounds nuw i8, ptr %.val, i64 24
  %10 = getelementptr inbounds nuw i8, ptr %.val, i64 32
  %11 = sext i32 %3 to i64
  br label %12

12:                                               ; preds = %12, %.lr.ph.i.i.i
  %indvars.iv.i.i.i = phi i64 [ %11, %.lr.ph.i.i.i ], [ %indvars.iv.next.i.i.i, %12 ]
  %13 = load ptr, ptr %.val, align 8, !tbaa !190
  %14 = load ptr, ptr %13, align 8, !tbaa !93
  %15 = load ptr, ptr %7, align 8, !tbaa !192
  %16 = load i32, ptr %15, align 4, !tbaa !40
  %17 = sext i32 %16 to i64
  %18 = mul nsw i64 %indvars.iv.i.i.i, %17
  %19 = getelementptr inbounds float, ptr %14, i64 %18
  %20 = load ptr, ptr %8, align 8, !tbaa !193
  %21 = load ptr, ptr %20, align 8, !tbaa !93
  %22 = load ptr, ptr %9, align 8, !tbaa !194
  %23 = load i64, ptr %22, align 8, !tbaa !39
  %24 = mul i64 %23, %indvars.iv.i.i.i
  %25 = getelementptr inbounds nuw float, ptr %21, i64 %24
  %26 = load ptr, ptr %10, align 8, !tbaa !195
  %27 = load i32, ptr %26, align 4, !tbaa !40
  %28 = sext i32 %27 to i64
  %29 = shl nsw i64 %28, 2
  tail call void @llvm.memcpy.p0.p0.i64(ptr align 4 %19, ptr align 4 %25, i64 %29, i1 false)
  %indvars.iv.next.i.i.i = add nsw i64 %indvars.iv.i.i.i, 1
  %30 = load i32, ptr %4, align 4, !tbaa !97
  %31 = sext i32 %30 to i64
  %32 = icmp slt i64 %indvars.iv.next.i.i.i, %31
  br i1 %32, label %12, label %"_ZSt10__invoke_rIvRZN2cv3dnn12initFastConvERKNS0_11_InputArrayEPfiiiRKSt6vectorImSaImEESA_SA_SA_SA_ibbE3$_0JRKNS0_5RangeEEENSt9enable_ifIXsr6__and_ISt7is_voidIT_ESt14__is_invocableIT0_JDpT1_EEEE5valueESI_E4typeEOSL_DpOSM_.exit", !llvm.loop !196

"_ZSt10__invoke_rIvRZN2cv3dnn12initFastConvERKNS0_11_InputArrayEPfiiiRKSt6vectorImSaImEESA_SA_SA_SA_ibbE3$_0JRKNS0_5RangeEEENSt9enable_ifIXsr6__and_ISt7is_voidIT_ESt14__is_invocableIT0_JDpT1_EEEE5valueESI_E4typeEOSL_DpOSM_.exit": ; preds = %12, %2
  ret void
}